; ModuleID = 'bench/openssl/original/dh_meth.ll'
source_filename = "bench/openssl/original/dh_meth.ll"
target datalayout = "e-m:e-p270:32:32-p271:32:32-p272:64:64-i64:64-i128:128-f80:128-n8:16:32:64-S128"
target triple = "x86_64-pc-linux-gnu"

@.str = private unnamed_addr constant [31 x i8] c"../openssl/crypto/dh/dh_meth.c\00", align 1

; Function Attrs: nounwind uwtable
define ptr @DH_meth_new(ptr noundef %0, i32 noundef %1) local_unnamed_addr #0 {
  %3 = tail call noalias ptr @CRYPTO_zalloc(i64 noundef 72, ptr noundef nonnull @.str, i32 noundef 22) #5
  %.not = icmp eq ptr %3, null
  br i1 %.not, label %8, label %4

4:                                                ; preds = %2
  %5 = getelementptr inbounds nuw i8, ptr %3, i64 48
  store i32 %1, ptr %5, align 8, !tbaa !3
  %6 = tail call noalias ptr @CRYPTO_strdup(ptr noundef %0, ptr noundef nonnull @.str, i32 noundef 27) #5
  store ptr %6, ptr %3, align 8, !tbaa !10
  %.not9 = icmp eq ptr %6, null
  br i1 %.not9, label %7, label %8

7:                                                ; preds = %4
  tail call void @CRYPTO_free(ptr noundef nonnull %3, ptr noundef nonnull @.str, i32 noundef 31) #5
  br label %8

8:                                                ; preds = %2, %7, %4
  %.0 = phi ptr [ %3, %4 ], [ null, %7 ], [ null, %2 ]
  ret ptr %.0
}

declare noalias ptr @CRYPTO_zalloc(i64 noundef, ptr noundef, i32 noundef) local_unnamed_addr #1

declare noalias ptr @CRYPTO_strdup(ptr noundef, ptr noundef, i32 noundef) local_unnamed_addr #1

declare void @CRYPTO_free(ptr noundef, ptr noundef, i32 noundef) local_unnamed_addr #1

; Function Attrs: nounwind uwtable
define void @DH_meth_free(ptr noundef %0) local_unnamed_addr #0 {
  %.not = icmp eq ptr %0, null
  br i1 %.not, label %4, label %2

2:                                                ; preds = %1
  %3 = load ptr, ptr %0, align 8, !tbaa !10
  tail call void @CRYPTO_free(ptr noundef %3, ptr noundef nonnull @.str, i32 noundef 40) #5
  tail call void @CRYPTO_free(ptr noundef nonnull %0, ptr noundef nonnull @.str, i32 noundef 41) #5
  br label %4

4:                                                ; preds = %2, %1
  ret void
}

; Function Attrs: nounwind uwtable
define ptr @DH_meth_dup(ptr noundef readonly captures(none) %0) local_unnamed_addr #0 {
  %2 = tail call noalias ptr @CRYPTO_malloc(i64 noundef 72, ptr noundef nonnull @.str, i32 noundef 47) #5
  %.not = icmp eq ptr %2, null
  br i1 %.not, label %7, label %3

3:                                                ; preds = %1
  tail call void @llvm.memcpy.p0.p0.i64(ptr noundef nonnull align 8 dereferenceable(72) %2, ptr noundef nonnull align 8 dereferenceable(72) %0, i64 72, i1 false)
  %4 = load ptr, ptr %0, align 8, !tbaa !10
  %5 = tail call noalias ptr @CRYPTO_strdup(ptr noundef %4, ptr noundef nonnull @.str, i32 noundef 52) #5
  store ptr %5, ptr %2, align 8, !tbaa !10
  %.not10 = icmp eq ptr %5, null
  br i1 %.not10, label %6, label %7

6:                                                ; preds = %3
  tail call void @CRYPTO_free(ptr noundef nonnull %2, ptr noundef nonnull @.str, i32 noundef 56) #5
  br label %7

7:                                                ; preds = %1, %6, %3
  %.0 = phi ptr [ %2, %3 ], [ null, %6 ], [ null, %1 ]
  ret ptr %.0
}

declare noalias ptr @CRYPTO_malloc(i64 noundef, ptr noundef, i32 noundef) local_unnamed_addr #1

; Function Attrs: mustprogress nocallback nofree nounwind willreturn memory(argmem: readwrite)
declare void @llvm.memcpy.p0.p0.i64(ptr noalias writeonly captures(none), ptr noalias readonly captures(none), i64, i1 immarg) #2

; Function Attrs: mustprogress nofree norecurse nosync nounwind willreturn memory(argmem: read) uwtable
define ptr @DH_meth_get0_name(ptr noundef readonly captures(none) %0) local_unnamed_addr #3 {
  %2 = load ptr, ptr %0, align 8, !tbaa !10
  ret ptr %2
}

; Function Attrs: nounwind uwtable
define range(i32 0, 2) i32 @DH_meth_set1_name(ptr noundef captures(none) %0, ptr noundef %1) local_unnamed_addr #0 {
  %3 = tail call noalias ptr @CRYPTO_strdup(ptr noundef %1, ptr noundef nonnull @.str, i32 noundef 69) #5
  %4 = icmp eq ptr %3, null
  br i1 %4, label %7, label %5

5:                                                ; preds = %2
  %6 = load ptr, ptr %0, align 8, !tbaa !10
  tail call void @CRYPTO_free(ptr noundef %6, ptr noundef nonnull @.str, i32 noundef 74) #5
  store ptr %3, ptr %0, align 8, !tbaa !10
  br label %7

7:                                                ; preds = %2, %5
  %.0 = phi i32 [ 1, %5 ], [ 0, %2 ]
  ret i32 %.0
}

; Function Attrs: mustprogress nofree norecurse nosync nounwind willreturn memory(argmem: read) uwtable
define i32 @DH_meth_get_flags(ptr noundef readonly captures(none) %0) local_unnamed_addr #3 {
  %2 = getelementptr inbounds nuw i8, ptr %0, i64 48
  %3 = load i32, ptr %2, align 8, !tbaa !3
  ret i32 %3
}

; Function Attrs: mustprogress nofree norecurse nosync nounwind willreturn memory(argmem: write) uwtable
define noundef i32 @DH_meth_set_flags(ptr noundef writeonly captures(none) initializes((48, 52)) %0, i32 noundef %1) local_unnamed_addr #4 {
  %3 = getelementptr inbounds nuw i8, ptr %0, i64 48
  store i32 %1, ptr %3, align 8, !tbaa !3
  ret i32 1
}

; Function Attrs: mustprogress nofree norecurse nosync nounwind willreturn memory(argmem: read) uwtable
define ptr @DH_meth_get0_app_data(ptr noundef readonly captures(none) %0) local_unnamed_addr #3 {
  %2 = getelementptr inbounds nuw i8, ptr %0, i64 56
  %3 = load ptr, ptr %2, align 8, !tbaa !11
  ret ptr %3
}

; Function Attrs: mustprogress nofree norecurse nosync nounwind willreturn memory(argmem: write) uwtable
define noundef i32 @DH_meth_set0_app_data(ptr noundef writeonly captures(none) initializes((56, 64)) %0, ptr noundef %1) local_unnamed_addr #4 {
  %3 = getelementptr inbounds nuw i8, ptr %0, i64 56
  store ptr %1, ptr %3, align 8, !tbaa !11
  ret i32 1
}

; Function Attrs: mustprogress nofree norecurse nosync nounwind willreturn memory(argmem: read) uwtable
define ptr @DH_meth_get_generate_key(ptr noundef readonly captures(none) %0) local_unnamed_addr #3 {
  %2 = getelementptr inbounds nuw i8, ptr %0, i64 8
  %3 = load ptr, ptr %2, align 8, !tbaa !12
  ret ptr %3
}

; Function Attrs: mustprogress nofree norecurse nosync nounwind willreturn memory(argmem: write) uwtable
define noundef i32 @DH_meth_set_generate_key(ptr noundef writeonly captures(none) initializes((8, 16)) %0, ptr noundef %1) local_unnamed_addr #4 {
  %3 = getelementptr inbounds nuw i8, ptr %0, i64 8
  store ptr %1, ptr %3, align 8, !tbaa !12
  ret i32 1
}

; Function Attrs: mustprogress nofree norecurse nosync nounwind willreturn memory(argmem: read) uwtable
define ptr @DH_meth_get_compute_key(ptr noundef readonly captures(none) %0) local_unnamed_addr #3 {
  %2 = getelementptr inbounds nuw i8, ptr %0, i64 16
  %3 = load ptr, ptr %2, align 8, !tbaa !13
  ret ptr %3
}

; Function Attrs: mustprogress nofree norecurse nosync nounwind willreturn memory(argmem: write) uwtable
define noundef i32 @DH_meth_set_compute_key(ptr noundef writeonly captures(none) initializes((16, 24)) %0, ptr noundef %1) local_unnamed_addr #4 {
  %3 = getelementptr inbounds nuw i8, ptr %0, i64 16
  store ptr %1, ptr %3, align 8, !tbaa !13
  ret i32 1
}

; Function Attrs: mustprogress nofree norecurse nosync nounwind willreturn memory(argmem: read) uwtable
define ptr @DH_meth_get_bn_mod_exp(ptr noundef readonly captures(none) %0) local_unnamed_addr #3 {
  %2 = getelementptr inbounds nuw i8, ptr %0, i64 24
  %3 = load ptr, ptr %2, align 8, !tbaa !14
  ret ptr %3
}

; Function Attrs: mustprogress nofree norecurse nosync nounwind willreturn memory(argmem: write) uwtable
define noundef i32 @DH_meth_set_bn_mod_exp(ptr noundef writeonly captures(none) initializes((24, 32)) %0, ptr noundef %1) local_unnamed_addr #4 {
  %3 = getelementptr inbounds nuw i8, ptr %0, i64 24
  store ptr %1, ptr %3, align 8, !tbaa !14
  ret i32 1
}

; Function Attrs: mustprogress nofree norecurse nosync nounwind willreturn memory(argmem: read) uwtable
define ptr @DH_meth_get_init(ptr noundef readonly captures(none) %0) local_unnamed_addr #3 {
  %2 = getelementptr inbounds nuw i8, ptr %0, i64 32
  %3 = load ptr, ptr %2, align 8, !tbaa !15
  ret ptr %3
}

; Function Attrs: mustprogress nofree norecurse nosync nounwind willreturn memory(argmem: write) uwtable
define noundef i32 @DH_meth_set_init(ptr noundef writeonly captures(none) initializes((32, 40)) %0, ptr noundef %1) local_unnamed_addr #4 {
  %3 = getelementptr inbounds nuw i8, ptr %0, i64 32
  store ptr %1, ptr %3, align 8, !tbaa !15
  ret i32 1
}

; Function Attrs: mustprogress nofree norecurse nosync nounwind willreturn memory(argmem: read) uwtable
define ptr @DH_meth_get_finish(ptr noundef readonly captures(none) %0) local_unnamed_addr #3 {
  %2 = getelementptr inbounds nuw i8, ptr %0, i64 40
  %3 = load ptr, ptr %2, align 8, !tbaa !16
  ret ptr %3
}

; Function Attrs: mustprogress nofree norecurse nosync nounwind willreturn memory(argmem: write) uwtable
define noundef i32 @DH_meth_set_finish(ptr noundef writeonly captures(none) initializes((40, 48)) %0, ptr noundef %1) local_unnamed_addr #4 {
  %3 = getelementptr inbounds nuw i8, ptr %0, i64 40
  store ptr %1, ptr %3, align 8, !tbaa !16
  ret i32 1
}

; Function Attrs: mustprogress nofree norecurse nosync nounwind willreturn memory(argmem: read) uwtable
define ptr @DH_meth_get_generate_params(ptr noundef readonly captures(none) %0) local_unnamed_addr #3 {
  %2 = getelementptr inbounds nuw i8, ptr %0, i64 64
  %3 = load ptr, ptr %2, align 8, !tbaa !17
  ret ptr %3
}

; Function Attrs: mustprogress nofree norecurse nosync nounwind willreturn memory(argmem: write) uwtable
define noundef i32 @DH_meth_set_generate_params(ptr noundef writeonly captures(none) initializes((64, 72)) %0, ptr noundef %1) local_unnamed_addr #4 {
  %3 = getelementptr inbounds nuw i8, ptr %0, i64 64
  store ptr %1, ptr %3, align 8, !tbaa !17
  ret i32 1
}


!llvm.module.flags = !{!0, !1, !2}

!0 = !{i32 1, !"wchar_size", i32 4}
!1 = !{i32 8, !"PIC Level", i32 2}
!2 = !{i32 7, !"uwtable", i32 2}
!3 = !{!4, !9, i64 48}
!4 = !{!"dh_method", !5, i64 0, !6, i64 8, !6, i64 16, !6, i64 24, !6, i64 32, !6, i64 40, !9, i64 48, !5, i64 56, !6, i64 64}
!5 = !{!"p1 omnipotent char", !6, i64 0}
!6 = !{!"any pointer", !7, i64 0}
!7 = !{!"omnipotent char", !8, i64 0}
!8 = !{!"Simple C/C++ TBAA"}
!9 = !{!"int", !7, i64 0}
!10 = !{!4, !5, i64 0}
!11 = !{!4, !5, i64 56}
!12 = !{!4, !6, i64 8}
!13 = !{!4, !6, i64 16}
!14 = !{!4, !6, i64 24}
!15 = !{!4, !6, i64 32}
!16 = !{!4, !6, i64 40}
!17 = !{!4, !6, i64 64}
